target datalayout = "e-m:e-p270:32:32-p271:32:32-p272:64:64-i64:64-i128:128-f80:128-n8:16:32:64-S128"
target triple = "x86_64-pc-linux-gnu"

%struct._php_ps_globals = type { ptr, ptr, ptr, ptr, ptr, i64, ptr, ptr, ptr, i8, i8, ptr, ptr, ptr, i32, ptr, i32, i32, %struct._php_random_status_state_pcgoneseq128xslrr64, %struct._php_random_algo_with_state, i64, i64, i64, i64, %struct.anon, ptr, i8, i8, i8, i8, i8, i8, i8, i8, ptr, %struct._zval_struct, i64, i64, ptr, ptr, ptr, i64, double, i8, i8, i8, i8, i8, i8, ptr }
%struct._php_random_status_state_pcgoneseq128xslrr64 = type { i128 }
%struct._php_random_algo_with_state = type { ptr, ptr }
%struct.anon = type { %struct._zval_struct, %struct._zval_struct, %struct._zval_struct, %struct._zval_struct, %struct._zval_struct, %struct._zval_struct, %struct._zval_struct, %struct._zval_struct, %struct._zval_struct }
%struct._zval_struct = type { %union._zend_value, %union.anon, %union.anon.3 }
%union._zend_value = type { i64 }
%union.anon = type { i32 }
%union.anon.3 = type { i32 }
%struct._zend_array = type { %struct._zend_refcounted_h, %union.anon.5, i32, %union.anon.7, i32, i32, i32, i32, i64, ptr }
%struct._zend_refcounted_h = type { i32, %union.anon.4 }
%union.anon.4 = type { i32 }
%union.anon.5 = type { i32 }
%union.anon.7 = type { ptr }
%struct._php_core_globals = type { i64, i8, i8, i8, i8, i8, i8, i8, i8, ptr, ptr, i64, i64, i64, ptr, ptr, ptr, ptr, ptr, i8, ptr, ptr, ptr, ptr, i64, ptr, ptr, ptr, ptr, ptr, ptr, ptr, %struct._arg_separators, ptr, %struct._zend_array, i16, i8, i8, %struct._zend_llist, [6 x %struct._zval_struct], i8, i8, i8, i8, i8, ptr, ptr, i64, [8 x i8], i8, i8, i8, i8, i8, i8, i32, i32, ptr, ptr, ptr, ptr, i64, i64, ptr, i64, ptr, ptr, i8, i8, i8, i8, i8, i8, i64, ptr, i64, i64 }
%struct._arg_separators = type { ptr, ptr }
%struct._zend_llist = type { ptr, ptr, i64, i64, ptr, i8, ptr }
%struct._sapi_module_struct = type { ptr, ptr, ptr, ptr, ptr, ptr, ptr, ptr, ptr, ptr, ptr, ptr, ptr, ptr, ptr, ptr, ptr, ptr, ptr, ptr, ptr, ptr, ptr, ptr, i32, i32, ptr, ptr, ptr, ptr, ptr, ptr, i32, ptr, ptr, ptr }
%struct._zend_reference = type { %struct._zend_refcounted_h, %struct._zval_struct, %union.zend_property_info_source_list }
%union.zend_property_info_source_list = type { ptr }
%struct.smart_str = type { ptr, i64 }
%struct.anon.1 = type { i8, i8, %union.anon.2 }
%union.anon.2 = type { i16 }
%struct._php_session_rfc1867_progress = type { i64, %struct._zval_struct, %struct.smart_str, i64, i64, double, i8, i8, i64, %struct._zval_struct, %struct._zval_struct, ptr, ptr, %struct._zval_struct }

@ps_globals = global %struct._php_ps_globals zeroinitializer, align 16
@core_globals = external global %struct._php_core_globals, align 8
@sapi_module = external global %struct._sapi_module_struct, align 8

; Function Attrs: nounwind uwtable
define internal zeroext i1 @early_find_sid_in(ptr noundef %0, i32 noundef %1, ptr noundef %2) #0 {
  %4 = alloca ptr, align 8
  %5 = alloca ptr, align 8
  %6 = alloca ptr, align 8
  %7 = alloca ptr, align 8
  %8 = alloca ptr, align 8
  %9 = alloca ptr, align 8
  %10 = alloca i1, align 1
  %11 = alloca ptr, align 8
  %12 = alloca i32, align 4
  %13 = alloca ptr, align 8
  %14 = alloca ptr, align 8
  %15 = alloca ptr, align 8
  %16 = alloca ptr, align 8
  %17 = alloca ptr, align 8
  %18 = alloca ptr, align 8
  %19 = alloca i32, align 4
  store ptr %0, ptr %11, align 8
  store i32 %1, ptr %12, align 4
  store ptr %2, ptr %13, align 8
  %20 = load i32, ptr %12, align 4
  %21 = sext i32 %20 to i64
  %22 = getelementptr inbounds [6 x %struct._zval_struct], ptr getelementptr inbounds (%struct._php_core_globals, ptr @core_globals, i32 0, i32 39), i64 0, i64 %21
  store ptr %22, ptr %8, align 8
  %23 = load ptr, ptr %8, align 8
  %24 = getelementptr inbounds %struct._zval_struct, ptr %23, i32 0, i32 1
  %25 = load i8, ptr %24, align 8
  %26 = zext i8 %25 to i32
  %27 = icmp eq i32 %26, 0
  br i1 %27, label %28, label %29

28:                                               ; preds = %3
  store i1 false, ptr %10, align 1
  br label %127

29:                                               ; preds = %3
  %30 = load i32, ptr %12, align 4
  %31 = sext i32 %30 to i64
  %32 = getelementptr inbounds [6 x %struct._zval_struct], ptr getelementptr inbounds (%struct._php_core_globals, ptr @core_globals, i32 0, i32 39), i64 0, i64 %31
  %33 = getelementptr inbounds %struct._zval_struct, ptr %32, i32 0, i32 0
  %34 = load ptr, ptr %33, align 8
  %35 = load ptr, ptr getelementptr inbounds (%struct._php_ps_globals, ptr @ps_globals, i32 0, i32 1), align 8
  %36 = load ptr, ptr %13, align 8
  %37 = getelementptr inbounds %struct._php_session_rfc1867_progress, ptr %36, i32 0, i32 0
  %38 = load i64, ptr %37, align 8
  %39 = call ptr @zend_hash_str_find(ptr noundef %34, ptr noundef %35, i64 noundef %38)
  store ptr %39, ptr %14, align 8
  %40 = icmp ne ptr %39, null
  br i1 %40, label %41, label %126

41:                                               ; preds = %29
  %42 = load ptr, ptr %14, align 8
  store ptr %42, ptr %9, align 8
  %43 = load ptr, ptr %9, align 8
  %44 = getelementptr inbounds %struct._zval_struct, ptr %43, i32 0, i32 1
  %45 = load i8, ptr %44, align 8
  %46 = zext i8 %45 to i32
  %47 = icmp eq i32 %46, 6
  br i1 %47, label %48, label %126

48:                                               ; preds = %41
  %49 = load ptr, ptr %11, align 8
  call void @zval_ptr_dtor(ptr noundef %49)
  br label %50

50:                                               ; preds = %48
  %51 = load ptr, ptr %14, align 8
  store ptr %51, ptr %15, align 8
  %52 = load ptr, ptr %15, align 8
  %53 = getelementptr inbounds %struct._zval_struct, ptr %52, i32 0, i32 1
  %54 = load i32, ptr %53, align 8
  %55 = and i32 %54, 65280
  %56 = icmp ne i32 %55, 0
  br i1 %56, label %57, label %106

57:                                               ; preds = %50
  %58 = load ptr, ptr %15, align 8
  %59 = getelementptr inbounds %struct._zval_struct, ptr %58, i32 0, i32 1
  %60 = load i32, ptr %59, align 8
  %61 = and i32 %60, 255
  %62 = icmp eq i32 %61, 10
  %63 = xor i1 %62, true
  %64 = xor i1 %63, true
  %65 = zext i1 %64 to i32
  %66 = sext i32 %65 to i64
  %67 = icmp ne i64 %66, 0
  br i1 %67, label %68, label %92

68:                                               ; preds = %57
  %69 = load ptr, ptr %15, align 8
  %70 = getelementptr inbounds %struct._zval_struct, ptr %69, i32 0, i32 0
  %71 = load ptr, ptr %70, align 8
  %72 = getelementptr inbounds %struct._zend_reference, ptr %71, i32 0, i32 1
  store ptr %72, ptr %15, align 8
  %73 = load ptr, ptr %15, align 8
  %74 = getelementptr inbounds %struct._zval_struct, ptr %73, i32 0, i32 1
  %75 = load i32, ptr %74, align 8
  %76 = and i32 %75, 65280
  %77 = icmp ne i32 %76, 0
  br i1 %77, label %78, label %91

78:                                               ; preds = %68
  %79 = load ptr, ptr %15, align 8
  store ptr %79, ptr %6, align 8
  %80 = load ptr, ptr %6, align 8
  %81 = getelementptr inbounds %struct._zval_struct, ptr %80, i32 0, i32 1
  %82 = getelementptr inbounds %struct.anon.1, ptr %81, i32 0, i32 1
  %83 = load i8, ptr %82, align 1
  %84 = zext i8 %83 to i32
  %85 = icmp ne i32 %84, 0
  call void @llvm.assume(i1 %85)
  %86 = load ptr, ptr %6, align 8
  %87 = load ptr, ptr %86, align 8
  store ptr %87, ptr %5, align 8
  %88 = load ptr, ptr %5, align 8
  %89 = load i32, ptr %88, align 4
  %90 = add i32 %89, 1
  store i32 %90, ptr %88, align 4
  br label %91

91:                                               ; preds = %78, %68
  br label %105

92:                                               ; preds = %57
  %93 = load ptr, ptr %15, align 8
  store ptr %93, ptr %7, align 8
  %94 = load ptr, ptr %7, align 8
  %95 = getelementptr inbounds %struct._zval_struct, ptr %94, i32 0, i32 1
  %96 = getelementptr inbounds %struct.anon.1, ptr %95, i32 0, i32 1
  %97 = load i8, ptr %96, align 1
  %98 = zext i8 %97 to i32
  %99 = icmp ne i32 %98, 0
  call void @llvm.assume(i1 %99)
  %100 = load ptr, ptr %7, align 8
  %101 = load ptr, ptr %100, align 8
  store ptr %101, ptr %4, align 8
  %102 = load ptr, ptr %4, align 8
  %103 = load i32, ptr %102, align 4
  %104 = add i32 %103, 1
  store i32 %104, ptr %102, align 4
  br label %105

105:                                              ; preds = %92, %91
  br label %106

106:                                              ; preds = %105, %50
  br label %107

107:                                              ; preds = %106
  %108 = load ptr, ptr %11, align 8
  store ptr %108, ptr %16, align 8
  %109 = load ptr, ptr %15, align 8
  store ptr %109, ptr %17, align 8
  %110 = load ptr, ptr %17, align 8
  %111 = getelementptr inbounds %struct._zval_struct, ptr %110, i32 0, i32 0
  %112 = load ptr, ptr %111, align 8
  store ptr %112, ptr %18, align 8
  %113 = load ptr, ptr %17, align 8
  %114 = getelementptr inbounds %struct._zval_struct, ptr %113, i32 0, i32 1
  %115 = load i32, ptr %114, align 8
  store i32 %115, ptr %19, align 4
  br label %116

116:                                              ; preds = %107
  %117 = load ptr, ptr %18, align 8
  %118 = load ptr, ptr %16, align 8
  %119 = getelementptr inbounds %struct._zval_struct, ptr %118, i32 0, i32 0
  store ptr %117, ptr %119, align 8
  %120 = load i32, ptr %19, align 4
  %121 = load ptr, ptr %16, align 8
  %122 = getelementptr inbounds %struct._zval_struct, ptr %121, i32 0, i32 1
  store i32 %120, ptr %122, align 8
  br label %123

123:                                              ; preds = %116
  br label %124

124:                                              ; preds = %123
  br label %125

125:                                              ; preds = %124
  store i1 true, ptr %10, align 1
  br label %127

126:                                              ; preds = %41, %29
  store i1 false, ptr %10, align 1
  br label %127

127:                                              ; preds = %126, %125, %28
  %128 = load i1, ptr %10, align 1
  ret i1 %128
}

; Function Attrs: nounwind uwtable
define internal void @php_session_rfc1867_early_find_sid(ptr noundef %0) #0 {
  %2 = alloca ptr, align 8
  store ptr %0, ptr %2, align 8
  %3 = load i8, ptr getelementptr inbounds (%struct._php_ps_globals, ptr @ps_globals, i32 0, i32 29), align 1
  %4 = trunc i8 %3 to i1
  br i1 %4, label %5, label %15

5:                                                ; preds = %1
  %6 = load ptr, ptr getelementptr inbounds (%struct._sapi_module_struct, ptr @sapi_module, i32 0, i32 22), align 8
  call void %6(i32 noundef 2, ptr noundef null, ptr noundef null)
  %7 = load ptr, ptr %2, align 8
  %8 = getelementptr inbounds %struct._php_session_rfc1867_progress, ptr %7, i32 0, i32 1
  %9 = load ptr, ptr %2, align 8
  %10 = call zeroext i1 @early_find_sid_in(ptr noundef %8, i32 noundef 2, ptr noundef %9)
  br i1 %10, label %11, label %14

11:                                               ; preds = %5
  %12 = load ptr, ptr %2, align 8
  %13 = getelementptr inbounds %struct._php_session_rfc1867_progress, ptr %12, i32 0, i32 7
  store i8 0, ptr %13, align 1
  br label %25

14:                                               ; preds = %5
  br label %15

15:                                               ; preds = %14, %1
  %16 = load i8, ptr getelementptr inbounds (%struct._php_ps_globals, ptr @ps_globals, i32 0, i32 30), align 4
  %17 = trunc i8 %16 to i1
  br i1 %17, label %18, label %19

18:                                               ; preds = %15
  br label %25

19:                                               ; preds = %15
  %20 = load ptr, ptr getelementptr inbounds (%struct._sapi_module_struct, ptr @sapi_module, i32 0, i32 22), align 8
  call void %20(i32 noundef 1, ptr noundef null, ptr noundef null)
  %21 = load ptr, ptr %2, align 8
  %22 = getelementptr inbounds %struct._php_session_rfc1867_progress, ptr %21, i32 0, i32 1
  %23 = load ptr, ptr %2, align 8
  %24 = call zeroext i1 @early_find_sid_in(ptr noundef %22, i32 noundef 1, ptr noundef %23)
  br label %25

25:                                               ; preds = %19, %18, %11
  ret void
}