; Function Attrs: nounwind uwtable
define internal fastcc void @php_session_rfc1867_early_find_sid(ptr noundef %0) unnamed_addr #0 {
  %2 = load i8, ptr getelementptr inbounds (%struct._php_ps_globals, ptr @ps_globals, i64 0, i32 29), align 1
  %3 = and i8 %2, 1
  %.not = icmp eq i8 %3, 0
  br i1 %.not, label %early_find_sid_in.exit.thread, label %4

4:                                                ; preds = %1
  %5 = load ptr, ptr getelementptr inbounds (%struct._sapi_module_struct, ptr @sapi_module, i64 0, i32 22), align 8
  tail call void %5(i32 noundef 2, ptr noundef null, ptr noundef null) #23
  %6 = getelementptr inbounds i8, ptr %0, i64 8
  %7 = load i8, ptr getelementptr inbounds (%struct._php_core_globals, ptr @core_globals, i64 0, i32 39, i64 2, i32 1, i32 0), align 8
  %8 = icmp eq i8 %7, 0
  br i1 %8, label %early_find_sid_in.exit.thread, label %9

9:                                                ; preds = %4
  %10 = load ptr, ptr getelementptr inbounds (%struct._php_core_globals, ptr @core_globals, i64 0, i32 39, i64 2), align 8
  %11 = load ptr, ptr getelementptr inbounds (%struct._php_ps_globals, ptr @ps_globals, i64 0, i32 1), align 8
  %12 = load i64, ptr %0, align 8
  %13 = tail call ptr @zend_hash_str_find(ptr noundef %10, ptr noundef %11, i64 noundef %12) #23
  %.not.i = icmp eq ptr %13, null
  br i1 %.not.i, label %early_find_sid_in.exit.thread, label %14

14:                                               ; preds = %9
  %15 = getelementptr inbounds i8, ptr %13, i64 8
  %16 = load i8, ptr %15, align 8
  %17 = icmp eq i8 %16, 6
  br i1 %17, label %18, label %early_find_sid_in.exit.thread

18:                                               ; preds = %14
  tail call void @zval_ptr_dtor(ptr noundef nonnull %6) #23
  %19 = load i32, ptr %15, align 8
  %20 = and i32 %19, 65280
  %.not30.i = icmp eq i32 %20, 0
  br i1 %.not30.i, label %33, label %21

21:                                               ; preds = %18
  %22 = and i32 %19, 255
  %23 = icmp eq i32 %22, 10
  br i1 %23, label %24, label %.sink.split.i

24:                                               ; preds = %21
  %25 = load ptr, ptr %13, align 8
  %26 = getelementptr inbounds i8, ptr %25, i64 8
  %27 = getelementptr inbounds i8, ptr %25, i64 16
  %28 = load i32, ptr %27, align 8
  %29 = and i32 %28, 65280
  %.not31.i = icmp eq i32 %29, 0
  br i1 %.not31.i, label %33, label %.sink.split.i

.sink.split.i:                                    ; preds = %24, %21
  %.sink34.i = phi ptr [ %26, %24 ], [ %13, %21 ]
  %30 = load ptr, ptr %.sink34.i, align 8
  %31 = load i32, ptr %30, align 4
  %32 = add i32 %31, 1
  store i32 %32, ptr %30, align 4
  br label %33

33:                                               ; preds = %.sink.split.i, %24, %18
  %.028.i = phi ptr [ %26, %24 ], [ %13, %18 ], [ %.sink34.i, %.sink.split.i ]
  %34 = load ptr, ptr %.028.i, align 8
  %35 = getelementptr inbounds i8, ptr %.028.i, i64 8
  %36 = load i32, ptr %35, align 8
  store ptr %34, ptr %6, align 8
  %37 = getelementptr inbounds i8, ptr %0, i64 16
  store i32 %36, ptr %37, align 8
  %38 = getelementptr inbounds i8, ptr %0, i64 65
  store i8 0, ptr %38, align 1
  br label %early_find_sid_in.exit14

early_find_sid_in.exit.thread:                    ; preds = %9, %14, %4, %1
  %39 = load i8, ptr getelementptr inbounds (%struct._php_ps_globals, ptr @ps_globals, i64 0, i32 30), align 4
  %40 = and i8 %39, 1
  %.not5 = icmp eq i8 %40, 0
  br i1 %.not5, label %41, label %early_find_sid_in.exit14

41:                                               ; preds = %early_find_sid_in.exit.thread
  %42 = load ptr, ptr getelementptr inbounds (%struct._sapi_module_struct, ptr @sapi_module, i64 0, i32 22), align 8
  tail call void %42(i32 noundef 1, ptr noundef null, ptr noundef null) #23
  %43 = getelementptr inbounds i8, ptr %0, i64 8
  %44 = load i8, ptr getelementptr inbounds (%struct._php_core_globals, ptr @core_globals, i64 0, i32 39, i64 1, i32 1, i32 0), align 8
  %45 = icmp eq i8 %44, 0
  br i1 %45, label %early_find_sid_in.exit14, label %46

46:                                               ; preds = %41
  %47 = load ptr, ptr getelementptr inbounds (%struct._php_core_globals, ptr @core_globals, i64 0, i32 39, i64 1), align 8
  %48 = load ptr, ptr getelementptr inbounds (%struct._php_ps_globals, ptr @ps_globals, i64 0, i32 1), align 8
  %49 = load i64, ptr %0, align 8
  %50 = tail call ptr @zend_hash_str_find(ptr noundef %47, ptr noundef %48, i64 noundef %49) #23
  %.not.i6 = icmp eq ptr %50, null
  br i1 %.not.i6, label %early_find_sid_in.exit14, label %51

51:                                               ; preds = %46
  %52 = getelementptr inbounds i8, ptr %50, i64 8
  %53 = load i8, ptr %52, align 8
  %54 = icmp eq i8 %53, 6
  br i1 %54, label %55, label %early_find_sid_in.exit14

55:                                               ; preds = %51
  tail call void @zval_ptr_dtor(ptr noundef nonnull %43) #23
  %56 = load i32, ptr %52, align 8
  %57 = and i32 %56, 65280
  %.not30.i8 = icmp eq i32 %57, 0
  br i1 %.not30.i8, label %70, label %58

58:                                               ; preds = %55
  %59 = and i32 %56, 255
  %60 = icmp eq i32 %59, 10
  br i1 %60, label %61, label %.sink.split.i9

61:                                               ; preds = %58
  %62 = load ptr, ptr %50, align 8
  %63 = getelementptr inbounds i8, ptr %62, i64 8
  %64 = getelementptr inbounds i8, ptr %62, i64 16
  %65 = load i32, ptr %64, align 8
  %66 = and i32 %65, 65280
  %.not31.i13 = icmp eq i32 %66, 0
  br i1 %.not31.i13, label %70, label %.sink.split.i9

.sink.split.i9:                                   ; preds = %61, %58
  %.sink34.i11 = phi ptr [ %63, %61 ], [ %50, %58 ]
  %67 = load ptr, ptr %.sink34.i11, align 8
  %68 = load i32, ptr %67, align 4
  %69 = add i32 %68, 1
  store i32 %69, ptr %67, align 4
  br label %70

70:                                               ; preds = %.sink.split.i9, %61, %55
  %.028.i12 = phi ptr [ %63, %61 ], [ %50, %55 ], [ %.sink34.i11, %.sink.split.i9 ]
  %71 = load ptr, ptr %.028.i12, align 8
  %72 = getelementptr inbounds i8, ptr %.028.i12, i64 8
  %73 = load i32, ptr %72, align 8
  store ptr %71, ptr %43, align 8
  %74 = getelementptr inbounds i8, ptr %0, i64 16
  store i32 %73, ptr %74, align 8
  br label %early_find_sid_in.exit14

early_find_sid_in.exit14:                         ; preds = %70, %51, %46, %41, %early_find_sid_in.exit.thread, %33
  ret void
}